; ModuleID = 'source-C-CXX/2/3171.c'
source_filename = "source-C-CXX/2/3171.c"
target datalayout = "e-m:e-p270:32:32-p271:32:32-p272:64:64-i64:64-f80:128-n8:16:32:64-S128"
target triple = "x86_64-pc-linux-gnu"

@.str = private unnamed_addr constant [7 x i8] c"%d %d\0A\00", align 1
@.str.1 = private unnamed_addr constant [3 x i8] c"%d\00", align 1
@.str.2 = private unnamed_addr constant [4 x i8] c"yes\00", align 1
@.str.3 = private unnamed_addr constant [3 x i8] c"no\00", align 1

; Function Attrs: nofree nounwind sspstrong uwtable
define dso_local i32 @main() local_unnamed_addr #0 {
  %1 = alloca i32, align 4
  %2 = alloca i32, align 4
  %3 = alloca [1000 x i32], align 16
  %4 = bitcast i32* %1 to i8*
  call void @llvm.lifetime.start.p0i8(i64 4, i8* nonnull %4) #3
  %5 = bitcast i32* %2 to i8*
  call void @llvm.lifetime.start.p0i8(i64 4, i8* nonnull %5) #3
  %6 = bitcast [1000 x i32]* %3 to i8*
  call void @llvm.lifetime.start.p0i8(i64 4000, i8* nonnull %6) #3
  %7 = call i32 (i8*, ...) @__isoc99_scanf(i8* getelementptr inbounds ([7 x i8], [7 x i8]* @.str, i64 0, i64 0), i32* nonnull %1, i32* nonnull %2)
  %8 = load i32, i32* %1, align 4, !tbaa !5
  %9 = icmp slt i32 %8, 1
  br i1 %9, label %18, label %10

10:                                               ; preds = %0, %10
  %11 = phi i64 [ %14, %10 ], [ 1, %0 ]
  %12 = getelementptr inbounds [1000 x i32], [1000 x i32]* %3, i64 0, i64 %11
  %13 = call i32 (i8*, ...) @__isoc99_scanf(i8* getelementptr inbounds ([3 x i8], [3 x i8]* @.str.1, i64 0, i64 0), i32* nonnull %12)
  %14 = add nuw nsw i64 %11, 1
  %15 = load i32, i32* %1, align 4, !tbaa !5
  %16 = sext i32 %15 to i64
  %17 = icmp slt i64 %11, %16
  br i1 %17, label %10, label %18, !llvm.loop !9

18:                                               ; preds = %10, %0
  %19 = phi i32 [ %8, %0 ], [ %15, %10 ]
  br label %20

20:                                               ; preds = %18, %46
  %21 = phi i32 [ %47, %46 ], [ %19, %18 ]
  %22 = phi i64 [ %27, %46 ], [ 1, %18 ]
  %23 = phi i64 [ %50, %46 ], [ 2, %18 ]
  %24 = sext i32 %21 to i64
  %25 = icmp slt i64 %22, %24
  br i1 %25, label %26, label %51

26:                                               ; preds = %20
  %27 = add nuw nsw i64 %22, 1
  %28 = load i32, i32* %2, align 4
  %29 = getelementptr inbounds [1000 x i32], [1000 x i32]* %3, i64 0, i64 %22
  %30 = load i32, i32* %29, align 4, !tbaa !5
  %31 = add i32 %21, 1
  br label %32

32:                                               ; preds = %26, %42
  %33 = phi i64 [ %23, %26 ], [ %43, %42 ]
  %34 = getelementptr inbounds [1000 x i32], [1000 x i32]* %3, i64 0, i64 %33
  %35 = load i32, i32* %34, align 4, !tbaa !5
  %36 = add nsw i32 %30, %35
  %37 = icmp eq i32 %36, %28
  br i1 %37, label %38, label %42

38:                                               ; preds = %32
  %39 = trunc i64 %33 to i32
  %40 = call i32 (i8*, ...) @printf(i8* nonnull dereferenceable(1) getelementptr inbounds ([4 x i8], [4 x i8]* @.str.2, i64 0, i64 0))
  %41 = load i32, i32* %1, align 4, !tbaa !5
  br label %46

42:                                               ; preds = %32
  %43 = add nuw nsw i64 %33, 1
  %44 = trunc i64 %43 to i32
  %45 = icmp eq i32 %31, %44
  br i1 %45, label %46, label %32, !llvm.loop !11

46:                                               ; preds = %42, %38
  %47 = phi i32 [ %41, %38 ], [ %21, %42 ]
  %48 = phi i32 [ %39, %38 ], [ %31, %42 ]
  %49 = icmp sgt i32 %48, %47
  %50 = add nuw nsw i64 %23, 1
  br i1 %49, label %20, label %51, !llvm.loop !12

51:                                               ; preds = %46, %20
  %52 = phi i32 [ %47, %46 ], [ %21, %20 ]
  %53 = trunc i64 %22 to i32
  %54 = icmp sgt i32 %52, %53
  br i1 %54, label %57, label %55

55:                                               ; preds = %51
  %56 = call i32 (i8*, ...) @printf(i8* nonnull dereferenceable(1) getelementptr inbounds ([3 x i8], [3 x i8]* @.str.3, i64 0, i64 0))
  br label %57

57:                                               ; preds = %55, %51
  call void @llvm.lifetime.end.p0i8(i64 4000, i8* nonnull %6) #3
  call void @llvm.lifetime.end.p0i8(i64 4, i8* nonnull %5) #3
  call void @llvm.lifetime.end.p0i8(i64 4, i8* nonnull %4) #3
  ret i32 0
}

; Function Attrs: argmemonly mustprogress nofree nosync nounwind willreturn
declare void @llvm.lifetime.start.p0i8(i64 immarg, i8* nocapture) #1

; Function Attrs: nofree nounwind
declare noundef i32 @__isoc99_scanf(i8* nocapture noundef readonly, ...) local_unnamed_addr #2

; Function Attrs: argmemonly mustprogress nofree nosync nounwind willreturn
declare void @llvm.lifetime.end.p0i8(i64 immarg, i8* nocapture) #1

; Function Attrs: nofree nounwind
declare noundef i32 @printf(i8* nocapture noundef readonly, ...) local_unnamed_addr #2


!llvm.module.flags = !{!0, !1, !2, !3}
!llvm.ident = !{!4}

!0 = !{i32 1, !"wchar_size", i32 4}
!1 = !{i32 7, !"PIC Level", i32 2}
!2 = !{i32 7, !"PIE Level", i32 2}
!3 = !{i32 7, !"uwtable", i32 1}
!4 = !{!"clang version 13.0.0"}
!5 = !{!6, !6, i64 0}
!6 = !{!"int", !7, i64 0}
!7 = !{!"omnipotent char", !8, i64 0}
!8 = !{!"Simple C/C++ TBAA"}
!9 = distinct !{!9, !10}
!10 = !{!"llvm.loop.mustprogress"}
!11 = distinct !{!11, !10}
!12 = distinct !{!12, !10}
